target datalayout = "e-m:e-p270:32:32-p271:32:32-p272:64:64-i64:64-i128:128-f80:128-n8:16:32:64-S128"
target triple = "x86_64-unknown-linux-gnu"

%"class.std::__cxx11::basic_string" = type { %"struct.std::__cxx11::basic_string<char>::_Alloc_hider", i64, %union.anon }
%"struct.std::__cxx11::basic_string<char>::_Alloc_hider" = type { ptr }
%union.anon = type { i64, [8 x i8] }
%"struct.rocksdb::InternalStats::CacheEntryRoleStats" = type <{ i64, i64, i64, i64, %"class.std::__cxx11::basic_string", %"struct.std::array", %"struct.std::array", i32, i32, i64, i64, i32, [4 x i8] }>
%"struct.std::array" = type { [14 x i64] }

; Function Attrs: mustprogress nounwind uwtable
define noundef i64 @_ZNK7rocksdb13InternalStats19CacheEntryRoleStats21GetLastDurationMicrosEv(ptr noundef nonnull align 8 dereferenceable(316) %this) #1 align 2 {
entry:
  %retval = alloca i64, align 8
  %this.addr = alloca ptr, align 8
  store ptr %this, ptr %this.addr, align 8
  %this1 = load ptr, ptr %this.addr, align 8
  %last_end_time_micros_ = getelementptr inbounds %"struct.rocksdb::InternalStats::CacheEntryRoleStats", ptr %this1, i32 0, i32 10
  %0 = load i64, ptr %last_end_time_micros_, align 8
  %last_start_time_micros_ = getelementptr inbounds %"struct.rocksdb::InternalStats::CacheEntryRoleStats", ptr %this1, i32 0, i32 9
  %1 = load i64, ptr %last_start_time_micros_, align 8
  %cmp = icmp ugt i64 %0, %1
  br i1 %cmp, label %if.then, label %if.else

if.then:                                          ; preds = %entry
  %last_end_time_micros_2 = getelementptr inbounds %"struct.rocksdb::InternalStats::CacheEntryRoleStats", ptr %this1, i32 0, i32 10
  %2 = load i64, ptr %last_end_time_micros_2, align 8
  %last_start_time_micros_3 = getelementptr inbounds %"struct.rocksdb::InternalStats::CacheEntryRoleStats", ptr %this1, i32 0, i32 9
  %3 = load i64, ptr %last_start_time_micros_3, align 8
  %sub = sub i64 %2, %3
  store i64 %sub, ptr %retval, align 8
  br label %return

if.else:                                          ; preds = %entry
  store i64 0, ptr %retval, align 8
  br label %return

return:                                           ; preds = %if.else, %if.then
  %4 = load i64, ptr %retval, align 8
  ret i64 %4
}