; Function Attrs: mustprogress nofree norecurse nosync nounwind willreturn memory(argmem: read) uwtable
define noundef i64 @_ZNK7rocksdb13InternalStats19CacheEntryRoleStats21GetLastDurationMicrosEv(ptr nocapture noundef nonnull readonly align 8 dereferenceable(316) %this) local_unnamed_addr #12 align 2 {
entry:
  %last_end_time_micros_ = getelementptr inbounds i8, ptr %this, i64 304
  %0 = load i64, ptr %last_end_time_micros_, align 8
  %last_start_time_micros_ = getelementptr inbounds i8, ptr %this, i64 296
  %1 = load i64, ptr %last_start_time_micros_, align 8
  %retval.0 = tail call i64 @llvm.usub.sat.i64(i64 %0, i64 %1)
  ret i64 %retval.0
}